; Function Attrs: nofree norecurse nosync nounwind memory(read, inaccessiblemem: none) uwtable
define i32 @Aig_ManChoiceNum(ptr noundef readonly captures(none) %0) local_unnamed_addr #7 {
  %2 = getelementptr inbounds nuw i8, ptr %0, i64 32
  %3 = load ptr, ptr %2, align 8, !tbaa !21
  %4 = getelementptr i8, ptr %3, i64 4
  %.val = load i32, ptr %4, align 4, !tbaa !22
  %5 = icmp sgt i32 %.val, 0
  br i1 %5, label %.lr.ph, label %.critedge

.lr.ph:                                           ; preds = %1
  %6 = getelementptr i8, ptr %3, i64 8
  %.val12 = load ptr, ptr %6, align 8, !tbaa !24
  %7 = getelementptr i8, ptr %0, i64 248
  %wide.trip.count = zext nneg i32 %.val to i64
  br label %8

8:                                                ; preds = %.lr.ph, %30
  %indvars.iv = phi i64 [ 0, %.lr.ph ], [ %indvars.iv.next, %30 ]
  %.016 = phi i32 [ 0, %.lr.ph ], [ %.1, %30 ]
  %9 = getelementptr inbounds nuw ptr, ptr %.val12, i64 %indvars.iv
  %10 = load ptr, ptr %9, align 8, !tbaa !25
  %11 = icmp eq ptr %10, null
  br i1 %11, label %30, label %12

12:                                               ; preds = %8
  %13 = getelementptr i8, ptr %10, i64 24
  %.val13 = load i64, ptr %13, align 8
  %14 = trunc i64 %.val13 to i32
  %15 = and i32 %14, 7
  %16 = add nsw i32 %15, -7
  %narrow.i = icmp ult i32 %16, -2
  br i1 %narrow.i, label %30, label %17

17:                                               ; preds = %12
  %.val14 = load ptr, ptr %7, align 8, !tbaa !89
  %.not.i = icmp eq ptr %.val14, null
  br i1 %.not.i, label %Aig_ObjIsChoice.exit, label %18

18:                                               ; preds = %17
  %19 = getelementptr inbounds nuw i8, ptr %10, i64 36
  %20 = load i32, ptr %19, align 4, !tbaa !44
  %21 = sext i32 %20 to i64
  %22 = getelementptr inbounds ptr, ptr %.val14, i64 %21
  %23 = load ptr, ptr %22, align 8, !tbaa !43
  %.not4.i = icmp eq ptr %23, null
  br i1 %.not4.i, label %Aig_ObjIsChoice.exit, label %24

24:                                               ; preds = %18
  %25 = and i64 %.val13, 4294967232
  %26 = icmp ne i64 %25, 0
  %27 = zext i1 %26 to i32
  br label %Aig_ObjIsChoice.exit

Aig_ObjIsChoice.exit:                             ; preds = %17, %18, %24
  %28 = phi i32 [ 0, %18 ], [ 0, %17 ], [ %27, %24 ]
  %29 = add nsw i32 %28, %.016
  br label %30

30:                                               ; preds = %Aig_ObjIsChoice.exit, %12, %8
  %.1 = phi i32 [ %.016, %8 ], [ %29, %Aig_ObjIsChoice.exit ], [ %.016, %12 ]
  %indvars.iv.next = add nuw nsw i64 %indvars.iv, 1
  %exitcond.not = icmp eq i64 %indvars.iv.next, %wide.trip.count
  br i1 %exitcond.not, label %.critedge, label %8, !llvm.loop !90

.critedge:                                        ; preds = %30, %1
  %.0.lcssa = phi i32 [ 0, %1 ], [ %.1, %30 ]
  ret i32 %.0.lcssa
}